target datalayout = "e-m:e-p270:32:32-p271:32:32-p272:64:64-i64:64-i128:128-f80:128-n8:16:32:64-S128"
target triple = "x86_64-pc-linux-gnu"

%struct._zval_struct = type { %union._zend_value, %union.anon.3, %union.anon.6 }
%union._zend_value = type { i64 }
%union.anon.3 = type { i32 }
%union.anon.6 = type { i32 }
%struct._zend_array = type { %struct._zend_refcounted_h, %union.anon.0, i32, %union.anon.1, i32, i32, i32, i32, i64, ptr }
%struct._zend_refcounted_h = type { i32, %union.anon }
%union.anon = type { i32 }
%union.anon.0 = type { i32 }
%union.anon.1 = type { ptr }
%struct.php_dom_xpath_callback_ns = type { %struct._zend_array, i32 }
%struct.php_dom_xpath_callbacks = type { ptr, ptr, ptr }
%struct._Bucket = type { %struct._zval_struct, i64, ptr }

; Function Attrs: nounwind uwtable
define void @php_dom_xpath_callbacks_delayed_lib_registration(ptr noundef %0, ptr noundef %1, ptr noundef %2) #0 {
  %4 = alloca ptr, align 8
  %5 = alloca ptr, align 8
  %6 = alloca ptr, align 8
  %7 = alloca ptr, align 8
  %8 = alloca ptr, align 8
  %9 = alloca ptr, align 8
  %10 = alloca ptr, align 8
  %11 = alloca ptr, align 8
  %12 = alloca ptr, align 8
  %13 = alloca ptr, align 8
  %14 = alloca ptr, align 8
  %15 = alloca ptr, align 8
  %16 = alloca ptr, align 8
  %17 = alloca ptr, align 8
  %18 = alloca ptr, align 8
  %19 = alloca ptr, align 8
  store ptr %0, ptr %6, align 8
  store ptr %1, ptr %7, align 8
  store ptr %2, ptr %8, align 8
  %20 = load ptr, ptr %6, align 8
  %21 = getelementptr inbounds %struct.php_dom_xpath_callbacks, ptr %20, i32 0, i32 1
  %22 = load ptr, ptr %21, align 8
  %23 = icmp ne ptr %22, null
  br i1 %23, label %24, label %131

24:                                               ; preds = %3
  br label %25

25:                                               ; preds = %24
  %26 = load ptr, ptr %6, align 8
  %27 = getelementptr inbounds %struct.php_dom_xpath_callbacks, ptr %26, i32 0, i32 1
  %28 = load ptr, ptr %27, align 8
  store ptr %28, ptr %11, align 8
  %29 = load ptr, ptr %11, align 8
  %30 = getelementptr inbounds %struct._zend_array, ptr %29, i32 0, i32 3
  %31 = load ptr, ptr %30, align 8
  %32 = getelementptr inbounds %struct._Bucket, ptr %31, i64 0
  store ptr %32, ptr %12, align 8
  %33 = load ptr, ptr %11, align 8
  %34 = getelementptr inbounds %struct._zend_array, ptr %33, i32 0, i32 3
  %35 = load ptr, ptr %34, align 8
  %36 = load ptr, ptr %11, align 8
  %37 = getelementptr inbounds %struct._zend_array, ptr %36, i32 0, i32 4
  %38 = load i32, ptr %37, align 8
  %39 = zext i32 %38 to i64
  %40 = getelementptr inbounds %struct._Bucket, ptr %35, i64 %39
  store ptr %40, ptr %13, align 8
  %41 = load ptr, ptr %11, align 8
  %42 = getelementptr inbounds %struct._zend_array, ptr %41, i32 0, i32 1
  %43 = load i32, ptr %42, align 8
  %44 = and i32 %43, 4
  %45 = icmp ne i32 %44, 0
  %46 = xor i1 %45, true
  call void @llvm.assume(i1 %46)
  br label %47

47:                                               ; preds = %126, %25
  %48 = load ptr, ptr %12, align 8
  %49 = load ptr, ptr %13, align 8
  %50 = icmp ne ptr %48, %49
  br i1 %50, label %51, label %129

51:                                               ; preds = %47
  %52 = load ptr, ptr %12, align 8
  %53 = getelementptr inbounds %struct._Bucket, ptr %52, i32 0, i32 0
  store ptr %53, ptr %14, align 8
  %54 = load ptr, ptr %14, align 8
  store ptr %54, ptr %4, align 8
  %55 = load ptr, ptr %4, align 8
  %56 = getelementptr inbounds %struct._zval_struct, ptr %55, i32 0, i32 1
  %57 = load i8, ptr %56, align 8
  %58 = zext i8 %57 to i32
  %59 = icmp eq i32 %58, 0
  %60 = xor i1 %59, true
  %61 = xor i1 %60, true
  %62 = zext i1 %61 to i32
  %63 = sext i32 %62 to i64
  %64 = icmp ne i64 %63, 0
  br i1 %64, label %65, label %66

65:                                               ; preds = %51
  br label %126

66:                                               ; preds = %51
  %67 = load ptr, ptr %12, align 8
  %68 = getelementptr inbounds %struct._Bucket, ptr %67, i32 0, i32 2
  %69 = load ptr, ptr %68, align 8
  store ptr %69, ptr %9, align 8
  %70 = load ptr, ptr %14, align 8
  %71 = getelementptr inbounds %struct._zval_struct, ptr %70, i32 0, i32 0
  %72 = load ptr, ptr %71, align 8
  store ptr %72, ptr %10, align 8
  br label %73

73:                                               ; preds = %66
  %74 = load ptr, ptr %10, align 8
  %75 = getelementptr inbounds %struct.php_dom_xpath_callback_ns, ptr %74, i32 0, i32 0
  store ptr %75, ptr %16, align 8
  %76 = load ptr, ptr %16, align 8
  %77 = getelementptr inbounds %struct._zend_array, ptr %76, i32 0, i32 3
  %78 = load ptr, ptr %77, align 8
  %79 = getelementptr inbounds %struct._Bucket, ptr %78, i64 0
  store ptr %79, ptr %17, align 8
  %80 = load ptr, ptr %16, align 8
  %81 = getelementptr inbounds %struct._zend_array, ptr %80, i32 0, i32 3
  %82 = load ptr, ptr %81, align 8
  %83 = load ptr, ptr %16, align 8
  %84 = getelementptr inbounds %struct._zend_array, ptr %83, i32 0, i32 4
  %85 = load i32, ptr %84, align 8
  %86 = zext i32 %85 to i64
  %87 = getelementptr inbounds %struct._Bucket, ptr %82, i64 %86
  store ptr %87, ptr %18, align 8
  %88 = load ptr, ptr %16, align 8
  %89 = getelementptr inbounds %struct._zend_array, ptr %88, i32 0, i32 1
  %90 = load i32, ptr %89, align 8
  %91 = and i32 %90, 4
  %92 = icmp ne i32 %91, 0
  %93 = xor i1 %92, true
  call void @llvm.assume(i1 %93)
  br label %94

94:                                               ; preds = %121, %73
  %95 = load ptr, ptr %17, align 8
  %96 = load ptr, ptr %18, align 8
  %97 = icmp ne ptr %95, %96
  br i1 %97, label %98, label %124

98:                                               ; preds = %94
  %99 = load ptr, ptr %17, align 8
  %100 = getelementptr inbounds %struct._Bucket, ptr %99, i32 0, i32 0
  store ptr %100, ptr %19, align 8
  %101 = load ptr, ptr %19, align 8
  store ptr %101, ptr %5, align 8
  %102 = load ptr, ptr %5, align 8
  %103 = getelementptr inbounds %struct._zval_struct, ptr %102, i32 0, i32 1
  %104 = load i8, ptr %103, align 8
  %105 = zext i8 %104 to i32
  %106 = icmp eq i32 %105, 0
  %107 = xor i1 %106, true
  %108 = xor i1 %107, true
  %109 = zext i1 %108 to i32
  %110 = sext i32 %109 to i64
  %111 = icmp ne i64 %110, 0
  br i1 %111, label %112, label %113

112:                                              ; preds = %98
  br label %121

113:                                              ; preds = %98
  %114 = load ptr, ptr %17, align 8
  %115 = getelementptr inbounds %struct._Bucket, ptr %114, i32 0, i32 2
  %116 = load ptr, ptr %115, align 8
  store ptr %116, ptr %15, align 8
  %117 = load ptr, ptr %8, align 8
  %118 = load ptr, ptr %7, align 8
  %119 = load ptr, ptr %9, align 8
  %120 = load ptr, ptr %15, align 8
  call void %117(ptr noundef %118, ptr noundef %119, ptr noundef %120)
  br label %121

121:                                              ; preds = %113, %112
  %122 = load ptr, ptr %17, align 8
  %123 = getelementptr inbounds %struct._Bucket, ptr %122, i32 1
  store ptr %123, ptr %17, align 8
  br label %94

124:                                              ; preds = %94
  br label %125

125:                                              ; preds = %124
  br label %126

126:                                              ; preds = %125, %65
  %127 = load ptr, ptr %12, align 8
  %128 = getelementptr inbounds %struct._Bucket, ptr %127, i32 1
  store ptr %128, ptr %12, align 8
  br label %47

129:                                              ; preds = %47
  br label %130

130:                                              ; preds = %129
  br label %131

131:                                              ; preds = %130, %3
  ret void
}