; Function Attrs: nounwind uwtable
define void @php_dom_xpath_callbacks_delayed_lib_registration(ptr nocapture noundef readonly %0, ptr noundef %1, ptr nocapture noundef readonly %2) local_unnamed_addr #0 {
  %4 = getelementptr inbounds i8, ptr %0, i64 8
  %5 = load ptr, ptr %4, align 8
  %.not = icmp eq ptr %5, null
  br i1 %.not, label %.loopexit36, label %6

6:                                                ; preds = %3
  %7 = getelementptr inbounds i8, ptr %5, i64 16
  %8 = load ptr, ptr %7, align 8
  %9 = getelementptr inbounds i8, ptr %5, i64 24
  %10 = load i32, ptr %9, align 8
  %11 = zext i32 %10 to i64
  %12 = getelementptr inbounds %struct._Bucket, ptr %8, i64 %11
  %13 = getelementptr inbounds i8, ptr %5, i64 8
  %14 = load i32, ptr %13, align 8
  %15 = and i32 %14, 4
  %.not32 = icmp eq i32 %15, 0
  tail call void @llvm.assume(i1 %.not32)
  %.not3339 = icmp eq i32 %10, 0
  br i1 %.not3339, label %.loopexit36, label %.lr.ph41

.lr.ph41:                                         ; preds = %6, %.loopexit
  %.040 = phi ptr [ %40, %.loopexit ], [ %8, %6 ]
  %16 = getelementptr inbounds i8, ptr %.040, i64 8
  %17 = load i8, ptr %16, align 8
  %18 = icmp eq i8 %17, 0
  br i1 %18, label %.loopexit, label %19

19:                                               ; preds = %.lr.ph41
  %20 = getelementptr inbounds i8, ptr %.040, i64 24
  %21 = load ptr, ptr %20, align 8
  %22 = load ptr, ptr %.040, align 8
  %23 = getelementptr inbounds i8, ptr %22, i64 16
  %24 = load ptr, ptr %23, align 8
  %25 = getelementptr inbounds i8, ptr %22, i64 24
  %26 = load i32, ptr %25, align 8
  %27 = zext i32 %26 to i64
  %28 = getelementptr inbounds %struct._Bucket, ptr %24, i64 %27
  %29 = getelementptr inbounds i8, ptr %22, i64 8
  %30 = load i32, ptr %29, align 8
  %31 = and i32 %30, 4
  %.not34 = icmp eq i32 %31, 0
  tail call void @llvm.assume(i1 %.not34)
  %.not3537 = icmp eq i32 %26, 0
  br i1 %.not3537, label %.loopexit, label %.lr.ph

.lr.ph:                                           ; preds = %19, %38
  %.03038 = phi ptr [ %39, %38 ], [ %24, %19 ]
  %32 = getelementptr inbounds i8, ptr %.03038, i64 8
  %33 = load i8, ptr %32, align 8
  %34 = icmp eq i8 %33, 0
  br i1 %34, label %38, label %35

35:                                               ; preds = %.lr.ph
  %36 = getelementptr inbounds i8, ptr %.03038, i64 24
  %37 = load ptr, ptr %36, align 8
  tail call void %2(ptr noundef %1, ptr noundef %21, ptr noundef %37) #9
  br label %38

38:                                               ; preds = %.lr.ph, %35
  %39 = getelementptr inbounds i8, ptr %.03038, i64 32
  %.not35 = icmp eq ptr %39, %28
  br i1 %.not35, label %.loopexit, label %.lr.ph

.loopexit:                                        ; preds = %38, %19, %.lr.ph41
  %40 = getelementptr inbounds i8, ptr %.040, i64 32
  %.not33 = icmp eq ptr %40, %12
  br i1 %.not33, label %.loopexit36, label %.lr.ph41

.loopexit36:                                      ; preds = %.loopexit, %6, %3
  ret void
}